; ModuleID = '35/702.c'
source_filename = "35/702.c"
target datalayout = "e-m:e-p270:32:32-p271:32:32-p272:64:64-i64:64-f80:128-n8:16:32:64-S128"
target triple = "x86_64-pc-linux-gnu"

@.str = private unnamed_addr constant [6 x i8] c"%d,%d\00", align 1
@.str.1 = private unnamed_addr constant [3 x i8] c"%d\00", align 1
@.str.2 = private unnamed_addr constant [6 x i8] c"%d+%d\00", align 1
@.str.3 = private unnamed_addr constant [3 x i8] c"No\00", align 1

; Function Attrs: noinline nounwind uwtable
define dso_local i32 @main() #0 {
  %1 = alloca i32, align 4
  %2 = alloca [8 x [8 x i32]], align 16
  %3 = alloca i32, align 4
  %4 = alloca i32, align 4
  %5 = alloca i32, align 4
  %6 = alloca i32, align 4
  %7 = alloca i32, align 4
  %8 = alloca i32, align 4
  %9 = alloca i32, align 4
  %10 = alloca [8 x i32], align 16
  %11 = alloca [8 x i32], align 16
  store i32 0, i32* %1, align 4
  store i32 0, i32* %5, align 4
  %12 = call i32 (i8*, ...) @__isoc99_scanf(i8* getelementptr inbounds ([6 x i8], [6 x i8]* @.str, i64 0, i64 0), i32* %3, i32* %4)
  store i32 0, i32* %8, align 4
  br label %13

13:                                               ; preds = %50, %0
  %14 = load i32, i32* %8, align 4
  %15 = load i32, i32* %3, align 4
  %16 = icmp slt i32 %14, %15
  br i1 %16, label %17, label %53

17:                                               ; preds = %13
  store i32 0, i32* %9, align 4
  br label %18

18:                                               ; preds = %46, %17
  %19 = load i32, i32* %9, align 4
  %20 = load i32, i32* %4, align 4
  %21 = icmp slt i32 %19, %20
  br i1 %21, label %22, label %49

22:                                               ; preds = %18
  %23 = load i32, i32* %8, align 4
  %24 = sext i32 %23 to i64
  %25 = getelementptr inbounds [8 x [8 x i32]], [8 x [8 x i32]]* %2, i64 0, i64 %24
  %26 = load i32, i32* %9, align 4
  %27 = sext i32 %26 to i64
  %28 = getelementptr inbounds [8 x i32], [8 x i32]* %25, i64 0, i64 %27
  %29 = call i32 (i8*, ...) @__isoc99_scanf(i8* getelementptr inbounds ([3 x i8], [3 x i8]* @.str.1, i64 0, i64 0), i32* %28)
  %30 = load i32, i32* %8, align 4
  %31 = sext i32 %30 to i64
  %32 = getelementptr inbounds [8 x [8 x i32]], [8 x [8 x i32]]* %2, i64 0, i64 %31
  %33 = getelementptr inbounds [8 x i32], [8 x i32]* %32, i64 0, i64 0
  %34 = load i32, i32* %33, align 16
  %35 = load i32, i32* %8, align 4
  %36 = sext i32 %35 to i64
  %37 = getelementptr inbounds [8 x i32], [8 x i32]* %10, i64 0, i64 %36
  store i32 %34, i32* %37, align 4
  %38 = getelementptr inbounds [8 x [8 x i32]], [8 x [8 x i32]]* %2, i64 0, i64 0
  %39 = load i32, i32* %9, align 4
  %40 = sext i32 %39 to i64
  %41 = getelementptr inbounds [8 x i32], [8 x i32]* %38, i64 0, i64 %40
  %42 = load i32, i32* %41, align 4
  %43 = load i32, i32* %9, align 4
  %44 = sext i32 %43 to i64
  %45 = getelementptr inbounds [8 x i32], [8 x i32]* %11, i64 0, i64 %44
  store i32 %42, i32* %45, align 4
  br label %46

46:                                               ; preds = %22
  %47 = load i32, i32* %9, align 4
  %48 = add nsw i32 %47, 1
  store i32 %48, i32* %9, align 4
  br label %18

49:                                               ; preds = %18
  br label %50

50:                                               ; preds = %49
  %51 = load i32, i32* %8, align 4
  %52 = add nsw i32 %51, 1
  store i32 %52, i32* %8, align 4
  br label %13

53:                                               ; preds = %13
  store i32 0, i32* %8, align 4
  br label %54

54:                                               ; preds = %116, %53
  %55 = load i32, i32* %8, align 4
  %56 = load i32, i32* %3, align 4
  %57 = icmp slt i32 %55, %56
  br i1 %57, label %58, label %119

58:                                               ; preds = %54
  store i32 0, i32* %9, align 4
  br label %59

59:                                               ; preds = %112, %58
  %60 = load i32, i32* %9, align 4
  %61 = load i32, i32* %4, align 4
  %62 = icmp slt i32 %60, %61
  br i1 %62, label %63, label %115

63:                                               ; preds = %59
  %64 = load i32, i32* %8, align 4
  %65 = sext i32 %64 to i64
  %66 = getelementptr inbounds [8 x [8 x i32]], [8 x [8 x i32]]* %2, i64 0, i64 %65
  %67 = load i32, i32* %9, align 4
  %68 = sext i32 %67 to i64
  %69 = getelementptr inbounds [8 x i32], [8 x i32]* %66, i64 0, i64 %68
  %70 = load i32, i32* %69, align 4
  %71 = load i32, i32* %8, align 4
  %72 = sext i32 %71 to i64
  %73 = getelementptr inbounds [8 x i32], [8 x i32]* %10, i64 0, i64 %72
  %74 = load i32, i32* %73, align 4
  %75 = icmp sgt i32 %70, %74
  br i1 %75, label %76, label %87

76:                                               ; preds = %63
  %77 = load i32, i32* %8, align 4
  %78 = sext i32 %77 to i64
  %79 = getelementptr inbounds [8 x [8 x i32]], [8 x [8 x i32]]* %2, i64 0, i64 %78
  %80 = load i32, i32* %9, align 4
  %81 = sext i32 %80 to i64
  %82 = getelementptr inbounds [8 x i32], [8 x i32]* %79, i64 0, i64 %81
  %83 = load i32, i32* %82, align 4
  %84 = load i32, i32* %8, align 4
  %85 = sext i32 %84 to i64
  %86 = getelementptr inbounds [8 x i32], [8 x i32]* %10, i64 0, i64 %85
  store i32 %83, i32* %86, align 4
  br label %87

87:                                               ; preds = %76, %63
  %88 = load i32, i32* %8, align 4
  %89 = sext i32 %88 to i64
  %90 = getelementptr inbounds [8 x [8 x i32]], [8 x [8 x i32]]* %2, i64 0, i64 %89
  %91 = load i32, i32* %9, align 4
  %92 = sext i32 %91 to i64
  %93 = getelementptr inbounds [8 x i32], [8 x i32]* %90, i64 0, i64 %92
  %94 = load i32, i32* %93, align 4
  %95 = load i32, i32* %9, align 4
  %96 = sext i32 %95 to i64
  %97 = getelementptr inbounds [8 x i32], [8 x i32]* %11, i64 0, i64 %96
  %98 = load i32, i32* %97, align 4
  %99 = icmp slt i32 %94, %98
  br i1 %99, label %100, label %111

100:                                              ; preds = %87
  %101 = load i32, i32* %8, align 4
  %102 = sext i32 %101 to i64
  %103 = getelementptr inbounds [8 x [8 x i32]], [8 x [8 x i32]]* %2, i64 0, i64 %102
  %104 = load i32, i32* %9, align 4
  %105 = sext i32 %104 to i64
  %106 = getelementptr inbounds [8 x i32], [8 x i32]* %103, i64 0, i64 %105
  %107 = load i32, i32* %106, align 4
  %108 = load i32, i32* %9, align 4
  %109 = sext i32 %108 to i64
  %110 = getelementptr inbounds [8 x i32], [8 x i32]* %11, i64 0, i64 %109
  store i32 %107, i32* %110, align 4
  br label %111

111:                                              ; preds = %100, %87
  br label %112

112:                                              ; preds = %111
  %113 = load i32, i32* %9, align 4
  %114 = add nsw i32 %113, 1
  store i32 %114, i32* %9, align 4
  br label %59

115:                                              ; preds = %59
  br label %116

116:                                              ; preds = %115
  %117 = load i32, i32* %8, align 4
  %118 = add nsw i32 %117, 1
  store i32 %118, i32* %8, align 4
  br label %54

119:                                              ; preds = %54
  store i32 0, i32* %8, align 4
  br label %120

120:                                              ; preds = %147, %119
  %121 = load i32, i32* %8, align 4
  %122 = load i32, i32* %3, align 4
  %123 = icmp slt i32 %121, %122
  br i1 %123, label %124, label %150

124:                                              ; preds = %120
  store i32 0, i32* %9, align 4
  br label %125

125:                                              ; preds = %143, %124
  %126 = load i32, i32* %9, align 4
  %127 = load i32, i32* %4, align 4
  %128 = icmp slt i32 %126, %127
  br i1 %128, label %129, label %146

129:                                              ; preds = %125
  %130 = load i32, i32* %8, align 4
  %131 = sext i32 %130 to i64
  %132 = getelementptr inbounds [8 x i32], [8 x i32]* %10, i64 0, i64 %131
  %133 = load i32, i32* %132, align 4
  %134 = load i32, i32* %9, align 4
  %135 = sext i32 %134 to i64
  %136 = getelementptr inbounds [8 x i32], [8 x i32]* %11, i64 0, i64 %135
  %137 = load i32, i32* %136, align 4
  %138 = icmp eq i32 %133, %137
  br i1 %138, label %139, label %142

139:                                              ; preds = %129
  store i32 1, i32* %5, align 4
  %140 = load i32, i32* %8, align 4
  store i32 %140, i32* %6, align 4
  %141 = load i32, i32* %9, align 4
  store i32 %141, i32* %7, align 4
  br label %142

142:                                              ; preds = %139, %129
  br label %143

143:                                              ; preds = %142
  %144 = load i32, i32* %9, align 4
  %145 = add nsw i32 %144, 1
  store i32 %145, i32* %9, align 4
  br label %125

146:                                              ; preds = %125
  br label %147

147:                                              ; preds = %146
  %148 = load i32, i32* %8, align 4
  %149 = add nsw i32 %148, 1
  store i32 %149, i32* %8, align 4
  br label %120

150:                                              ; preds = %120
  %151 = load i32, i32* %5, align 4
  %152 = icmp eq i32 %151, 1
  br i1 %152, label %153, label %157

153:                                              ; preds = %150
  %154 = load i32, i32* %6, align 4
  %155 = load i32, i32* %7, align 4
  %156 = call i32 (i8*, ...) @printf(i8* getelementptr inbounds ([6 x i8], [6 x i8]* @.str.2, i64 0, i64 0), i32 %154, i32 %155)
  br label %159

157:                                              ; preds = %150
  %158 = call i32 (i8*, ...) @printf(i8* getelementptr inbounds ([3 x i8], [3 x i8]* @.str.3, i64 0, i64 0))
  br label %159

159:                                              ; preds = %157, %153
  ret i32 0
}

declare dso_local i32 @__isoc99_scanf(i8*, ...) #1

declare dso_local i32 @printf(i8*, ...) #1


!llvm.module.flags = !{!0}
!llvm.ident = !{!1}

!0 = !{i32 1, !"wchar_size", i32 4}
!1 = !{!"clang version 10.0.0-4ubuntu1 "}
